ccopy_reg
_reconstructor
p0
(csklearn.linear_model.base
LinearRegression
p1
c__builtin__
object
p2
Ntp3
Rp4
(dp5
S'normalize'
p6
I00
sS'n_jobs'
p7
I-1
sS'rank_'
p8
I4
sS'fit_intercept'
p9
I01
sS'_residues'
p10
cnumpy.core.multiarray
scalar
p11
(cnumpy
dtype
p12
(S'f8'
p13
I0
I1
tp14
Rp15
(I3
S'<'
p16
NNNI-1
I-1
I0
tp17
bS'3\x1e\xf0F<{EA'
p18
tp19
Rp20
sS'singular_'
p21
cnumpy.core.multiarray
_reconstruct
p22
(cnumpy
ndarray
p23
(I0
tp24
S'b'
p25
tp26
Rp27
(I1
(I4
tp28
g15
I00
S'\x17\x98\xd4!\rzQ@\xb6\xe7,\x8c\x99\xb5L@1\xea\xb7 \xbf\xe0@@\x1c\x9bw\xef\x12\x136@'
p29
tp30
bsS'coef_'
p31
g22
(g23
(I0
tp32
g25
tp33
Rp34
(I1
(I4
tp35
g15
I00
S"\x86\xcbfp\xadug@\x90P'\xf9\x0f\xc8\xfd\xbf\xa0\xe5\xf4\x98\xd2\xff\xee\xbf\xa0\xdfu9 B\t\xc0"
p36
tp37
bsS'_sklearn_version'
p38
S'0.18.1'
p39
sS'copy_X'
p40
I01
sS'intercept_'
p41
g11
(g15
S'>\xf5\xaf\x1e\x8aUv@'
p42
tp43
Rp44
sb.